; Function Attrs: mustprogress nofree norecurse nosync nounwind willreturn memory(read, inaccessiblemem: none) uwtable
define internal range(i32 0, 2) i32 @H5HF__sect_row_can_shrink(ptr noundef readonly captures(none) %0, ptr noundef readonly captures(none) %1) #1 {
  %3 = load i8, ptr @H5HF_init_g, align 1, !tbaa !3, !range !7, !noundef !8
  %4 = trunc nuw i8 %3 to i1
  %5 = load i8, ptr @H5_libterm_g, align 1, !range !7
  %6 = trunc nuw i8 %5 to i1
  %7 = xor i1 %6, true
  %8 = select i1 %4, i1 true, i1 %7
  br i1 %8, label %9, label %14, !prof !9

9:                                                ; preds = %2
  %10 = load ptr, ptr %1, align 8, !tbaa !12
  %11 = load i64, ptr %0, align 8, !tbaa !23
  %12 = getelementptr inbounds nuw i8, ptr %10, i64 520
  %13 = load i64, ptr %12, align 8, !tbaa !69
  %.not = icmp uge i64 %11, %13
  %spec.select = zext i1 %.not to i32
  br label %14

14:                                               ; preds = %9, %2
  %.0 = phi i32 [ 0, %2 ], [ %spec.select, %9 ]
  ret i32 %.0
}